target datalayout = "e-m:e-p270:32:32-p271:32:32-p272:64:64-i64:64-i128:128-f80:128-n8:16:32:64-S128"
target triple = "x86_64-unknown-linux-gnu"

%"class.proxygen::StructuredHeadersBuffer" = type { %"class.folly::Range", %"class.folly::Range" }
%"class.folly::Range" = type { ptr, ptr }

@.str.28 = private unnamed_addr constant [19 x i8] c"index out of range\00", align 1

; Function Attrs: mustprogress nounwind uwtable
define linkonce_odr noundef i32 @_ZNSt11char_traitsIcE7compareEPKcS2_m(ptr noundef %__s1, ptr noundef %__s2, i64 noundef %__n) #2 comdat align 2 {
entry:
  %retval = alloca i32, align 4
  %__s1.addr = alloca ptr, align 8
  %__s2.addr = alloca ptr, align 8
  %__n.addr = alloca i64, align 8
  store ptr %__s1, ptr %__s1.addr, align 8
  store ptr %__s2, ptr %__s2.addr, align 8
  store i64 %__n, ptr %__n.addr, align 8
  %0 = load i64, ptr %__n.addr, align 8
  %cmp = icmp eq i64 %0, 0
  br i1 %cmp, label %if.then, label %if.end

if.then:                                          ; preds = %entry
  store i32 0, ptr %retval, align 4
  br label %return

if.end:                                           ; preds = %entry
  %1 = load ptr, ptr %__s1.addr, align 8
  %2 = load ptr, ptr %__s2.addr, align 8
  %3 = load i64, ptr %__n.addr, align 8
  %call = call i32 @memcmp(ptr noundef %1, ptr noundef %2, i64 noundef %3) #3
  store i32 %call, ptr %retval, align 4
  br label %return

return:                                           ; preds = %if.end, %if.then
  %4 = load i32, ptr %retval, align 4
  ret i32 %4
}

; Function Attrs: mustprogress nounwind uwtable
define linkonce_odr noundef ptr @_ZNK5folly5RangeIPKcE4dataEv(ptr noundef nonnull align 8 dereferenceable(16) %this) #2 comdat align 2 {
entry:
  %this.addr = alloca ptr, align 8
  store ptr %this, ptr %this.addr, align 8
  %this1 = load ptr, ptr %this.addr, align 8
  %b_ = getelementptr inbounds %"class.folly::Range", ptr %this1, i32 0, i32 0
  %0 = load ptr, ptr %b_, align 8
  ret ptr %0
}

; Function Attrs: mustprogress uwtable
define linkonce_odr noundef i32 @_ZNK5folly5RangeIPKcE7compareERKS3_(ptr noundef nonnull align 8 dereferenceable(16) %this, ptr noundef nonnull align 8 dereferenceable(16) %o) #1 comdat align 2 {
entry:
  %this.addr = alloca ptr, align 8
  %o.addr = alloca ptr, align 8
  %tsize = alloca i64, align 8
  %osize = alloca i64, align 8
  %msize = alloca i64, align 8
  %r = alloca i32, align 4
  store ptr %this, ptr %this.addr, align 8
  store ptr %o, ptr %o.addr, align 8
  %this1 = load ptr, ptr %this.addr, align 8
  %call = call noundef i64 @_ZNK5folly5RangeIPKcE4sizeEv(ptr noundef nonnull align 8 dereferenceable(16) %this1)
  store i64 %call, ptr %tsize, align 8
  %0 = load ptr, ptr %o.addr, align 8
  %call2 = call noundef i64 @_ZNK5folly5RangeIPKcE4sizeEv(ptr noundef nonnull align 8 dereferenceable(16) %0)
  store i64 %call2, ptr %osize, align 8
  %call3 = call noundef nonnull align 8 dereferenceable(8) ptr @_ZSt3minImERKT_S2_S2_(ptr noundef nonnull align 8 dereferenceable(8) %tsize, ptr noundef nonnull align 8 dereferenceable(8) %osize)
  %1 = load i64, ptr %call3, align 8
  store i64 %1, ptr %msize, align 8
  %call4 = call noundef ptr @_ZNK5folly5RangeIPKcE4dataEv(ptr noundef nonnull align 8 dereferenceable(16) %this1)
  %2 = load ptr, ptr %o.addr, align 8
  %call5 = call noundef ptr @_ZNK5folly5RangeIPKcE4dataEv(ptr noundef nonnull align 8 dereferenceable(16) %2)
  %3 = load i64, ptr %msize, align 8
  %call6 = call noundef i32 @_ZNSt11char_traitsIcE7compareEPKcS2_m(ptr noundef %call4, ptr noundef %call5, i64 noundef %3)
  store i32 %call6, ptr %r, align 4
  %4 = load i32, ptr %r, align 4
  %cmp = icmp eq i32 %4, 0
  br i1 %cmp, label %land.lhs.true, label %if.end

land.lhs.true:                                    ; preds = %entry
  %5 = load i64, ptr %tsize, align 8
  %6 = load i64, ptr %osize, align 8
  %cmp7 = icmp ne i64 %5, %6
  br i1 %cmp7, label %if.then, label %if.end

if.then:                                          ; preds = %land.lhs.true
  %7 = load i64, ptr %osize, align 8
  %8 = load i64, ptr %tsize, align 8
  %sub = sub i64 %7, %8
  %shr = lshr i64 %sub, 63
  %conv = trunc i64 %shr to i32
  %shl = shl i32 %conv, 1
  %sub8 = sub nsw i32 %shl, 1
  store i32 %sub8, ptr %r, align 4
  br label %if.end

if.end:                                           ; preds = %if.then, %land.lhs.true, %entry
  %9 = load i32, ptr %r, align 4
  ret i32 %9
}

; Function Attrs: mustprogress nounwind uwtable
define linkonce_odr void @_ZN5folly5RangeIPKcEC2ES2_m(ptr noundef nonnull align 8 dereferenceable(16) %this, ptr noundef %start, i64 noundef %size) unnamed_addr #2 comdat align 2 {
entry:
  %this.addr = alloca ptr, align 8
  %start.addr = alloca ptr, align 8
  %size.addr = alloca i64, align 8
  store ptr %this, ptr %this.addr, align 8
  store ptr %start, ptr %start.addr, align 8
  store i64 %size, ptr %size.addr, align 8
  %this1 = load ptr, ptr %this.addr, align 8
  %b_ = getelementptr inbounds %"class.folly::Range", ptr %this1, i32 0, i32 0
  %0 = load ptr, ptr %start.addr, align 8
  store ptr %0, ptr %b_, align 8
  %e_ = getelementptr inbounds %"class.folly::Range", ptr %this1, i32 0, i32 1
  %1 = load ptr, ptr %start.addr, align 8
  %2 = load i64, ptr %size.addr, align 8
  %add.ptr = getelementptr inbounds i8, ptr %1, i64 %2
  store ptr %add.ptr, ptr %e_, align 8
  ret void
}

; Function Attrs: mustprogress nounwind uwtable
define linkonce_odr noundef nonnull align 8 dereferenceable(8) ptr @_ZSt3minImERKT_S2_S2_(ptr noundef nonnull align 8 dereferenceable(8) %__a, ptr noundef nonnull align 8 dereferenceable(8) %__b) #2 comdat {
entry:
  %retval = alloca ptr, align 8
  %__a.addr = alloca ptr, align 8
  %__b.addr = alloca ptr, align 8
  store ptr %__a, ptr %__a.addr, align 8
  store ptr %__b, ptr %__b.addr, align 8
  %0 = load ptr, ptr %__b.addr, align 8
  %1 = load i64, ptr %0, align 8
  %2 = load ptr, ptr %__a.addr, align 8
  %3 = load i64, ptr %2, align 8
  %cmp = icmp ult i64 %1, %3
  br i1 %cmp, label %if.then, label %if.end

if.then:                                          ; preds = %entry
  %4 = load ptr, ptr %__b.addr, align 8
  store ptr %4, ptr %retval, align 8
  br label %return

if.end:                                           ; preds = %entry
  %5 = load ptr, ptr %__a.addr, align 8
  store ptr %5, ptr %retval, align 8
  br label %return

return:                                           ; preds = %if.end, %if.then
  %6 = load ptr, ptr %retval, align 8
  ret ptr %6
}

; Function Attrs: mustprogress uwtable
define linkonce_odr noundef zeroext i1 @_ZN5follyeqIPKcEEbRKNS_5RangeIT_EES7_(ptr noundef nonnull align 8 dereferenceable(16) %lhs, ptr noundef nonnull align 8 dereferenceable(16) %rhs) #1 comdat {
entry:
  %lhs.addr = alloca ptr, align 8
  %rhs.addr = alloca ptr, align 8
  store ptr %lhs, ptr %lhs.addr, align 8
  store ptr %rhs, ptr %rhs.addr, align 8
  %0 = load ptr, ptr %lhs.addr, align 8
  %call = call noundef i64 @_ZNK5folly5RangeIPKcE4sizeEv(ptr noundef nonnull align 8 dereferenceable(16) %0)
  %1 = load ptr, ptr %rhs.addr, align 8
  %call1 = call noundef i64 @_ZNK5folly5RangeIPKcE4sizeEv(ptr noundef nonnull align 8 dereferenceable(16) %1)
  %cmp = icmp eq i64 %call, %call1
  br i1 %cmp, label %land.rhs, label %land.end

land.rhs:                                         ; preds = %entry
  %2 = load ptr, ptr %lhs.addr, align 8
  %3 = load ptr, ptr %rhs.addr, align 8
  %call2 = call noundef i32 @_ZNK5folly5RangeIPKcE7compareERKS3_(ptr noundef nonnull align 8 dereferenceable(16) %2, ptr noundef nonnull align 8 dereferenceable(16) %3)
  %cmp3 = icmp eq i32 %call2, 0
  br label %land.end

land.end:                                         ; preds = %land.rhs, %entry
  %4 = phi i1 [ false, %entry ], [ %cmp3, %land.rhs ]
  ret i1 %4
}

; Function Attrs: mustprogress uwtable
define linkonce_odr { ptr, ptr } @_ZNK5folly5RangeIPKcE8subpieceEmm(ptr noundef nonnull align 8 dereferenceable(16) %this, i64 noundef %first, i64 noundef %length) #1 comdat align 2 {
entry:
  %args.addr.i = alloca ptr, align 8
  %retval = alloca %"class.folly::Range", align 8
  %this.addr = alloca ptr, align 8
  %first.addr = alloca i64, align 8
  %length.addr = alloca i64, align 8
  %ref.tmp = alloca i64, align 8
  store ptr %this, ptr %this.addr, align 8
  store i64 %first, ptr %first.addr, align 8
  store i64 %length, ptr %length.addr, align 8
  %this1 = load ptr, ptr %this.addr, align 8
  %0 = load i64, ptr %first.addr, align 8
  %call = call noundef i64 @_ZNK5folly5RangeIPKcE4sizeEv(ptr noundef nonnull align 8 dereferenceable(16) %this1)
  %cmp = icmp ugt i64 %0, %call
  br i1 %cmp, label %if.then, label %if.end

if.then:                                          ; preds = %entry
  store ptr @.str.28, ptr %args.addr.i, align 8
  %1 = load ptr, ptr %args.addr.i, align 8
  call void @_ZN5folly6detail16throw_exception_ISt12out_of_rangeJPKcEEEvDpT0_(ptr noundef %1) #24
  unreachable

_ZN5folly15throw_exceptionISt12out_of_rangeJRA19_KcEEEvDpOT0_.exit: ; No predecessors!
  unreachable

if.end:                                           ; preds = %entry
  %b_ = getelementptr inbounds %"class.folly::Range", ptr %this1, i32 0, i32 0
  %2 = load ptr, ptr %b_, align 8
  %3 = load i64, ptr %first.addr, align 8
  %add.ptr = getelementptr inbounds i8, ptr %2, i64 %3
  %call2 = call noundef i64 @_ZNK5folly5RangeIPKcE4sizeEv(ptr noundef nonnull align 8 dereferenceable(16) %this1)
  %4 = load i64, ptr %first.addr, align 8
  %sub = sub i64 %call2, %4
  store i64 %sub, ptr %ref.tmp, align 8
  %call3 = call noundef nonnull align 8 dereferenceable(8) ptr @_ZSt3minImERKT_S2_S2_(ptr noundef nonnull align 8 dereferenceable(8) %length.addr, ptr noundef nonnull align 8 dereferenceable(8) %ref.tmp)
  %5 = load i64, ptr %call3, align 8
  call void @_ZN5folly5RangeIPKcEC2ES2_m(ptr noundef nonnull align 8 dereferenceable(16) %retval, ptr noundef %add.ptr, i64 noundef %5)
  %6 = load { ptr, ptr }, ptr %retval, align 8
  ret { ptr, ptr } %6
}

; Function Attrs: mustprogress nounwind uwtable
define linkonce_odr { ptr, ptr } @_ZNK5folly5RangeIPKcE11castToConstEv(ptr noundef nonnull align 8 dereferenceable(16) %this) #2 comdat align 2 {
entry:
  %retval = alloca %"class.folly::Range", align 8
  %this.addr = alloca ptr, align 8
  store ptr %this, ptr %this.addr, align 8
  %this1 = load ptr, ptr %this.addr, align 8
  call void @llvm.memcpy.p0.p0.i64(ptr align 8 %retval, ptr align 8 %this1, i64 16, i1 false)
  %0 = load { ptr, ptr }, ptr %retval, align 8
  ret { ptr, ptr } %0
}

; Function Attrs: mustprogress nounwind uwtable
define linkonce_odr noundef i64 @_ZNK5folly5RangeIPKcE4sizeEv(ptr noundef nonnull align 8 dereferenceable(16) %this) #2 comdat align 2 {
entry:
  %this.addr = alloca ptr, align 8
  store ptr %this, ptr %this.addr, align 8
  %this1 = load ptr, ptr %this.addr, align 8
  %e_ = getelementptr inbounds %"class.folly::Range", ptr %this1, i32 0, i32 1
  %0 = load ptr, ptr %e_, align 8
  %b_ = getelementptr inbounds %"class.folly::Range", ptr %this1, i32 0, i32 0
  %1 = load ptr, ptr %b_, align 8
  %sub.ptr.lhs.cast = ptrtoint ptr %0 to i64
  %sub.ptr.rhs.cast = ptrtoint ptr %1 to i64
  %sub.ptr.sub = sub i64 %sub.ptr.lhs.cast, %sub.ptr.rhs.cast
  ret i64 %sub.ptr.sub
}

; Function Attrs: mustprogress uwtable
define linkonce_odr void @_ZN5folly5RangeIPKcE7advanceEm(ptr noundef nonnull align 8 dereferenceable(16) %this, i64 noundef %n) #1 comdat align 2 {
entry:
  %args.addr.i = alloca ptr, align 8
  %this.addr = alloca ptr, align 8
  %n.addr = alloca i64, align 8
  store ptr %this, ptr %this.addr, align 8
  store i64 %n, ptr %n.addr, align 8
  %this1 = load ptr, ptr %this.addr, align 8
  %0 = load i64, ptr %n.addr, align 8
  %call = call noundef i64 @_ZNK5folly5RangeIPKcE4sizeEv(ptr noundef nonnull align 8 dereferenceable(16) %this1)
  %cmp = icmp ugt i64 %0, %call
  br i1 %cmp, label %if.then, label %if.end

if.then:                                          ; preds = %entry
  store ptr @.str.28, ptr %args.addr.i, align 8
  %1 = load ptr, ptr %args.addr.i, align 8
  call void @_ZN5folly6detail16throw_exception_ISt12out_of_rangeJPKcEEEvDpT0_(ptr noundef %1) #24
  unreachable

_ZN5folly15throw_exceptionISt12out_of_rangeJRA19_KcEEEvDpOT0_.exit: ; No predecessors!
  unreachable

if.end:                                           ; preds = %entry
  %2 = load i64, ptr %n.addr, align 8
  %b_ = getelementptr inbounds %"class.folly::Range", ptr %this1, i32 0, i32 0
  %3 = load ptr, ptr %b_, align 8
  %add.ptr = getelementptr inbounds i8, ptr %3, i64 %2
  store ptr %add.ptr, ptr %b_, align 8
  ret void
}

; Function Attrs: mustprogress uwtable
define linkonce_odr noundef zeroext i1 @_ZNK5folly5RangeIPKcE10startsWithERKS3_(ptr noundef nonnull align 8 dereferenceable(16) %this, ptr noundef nonnull align 8 dereferenceable(16) %other) #1 comdat align 2 {
entry:
  %this.addr = alloca ptr, align 8
  %other.addr = alloca ptr, align 8
  %ref.tmp = alloca %"class.folly::Range", align 8
  %ref.tmp3 = alloca %"class.folly::Range", align 8
  store ptr %this, ptr %this.addr, align 8
  store ptr %other, ptr %other.addr, align 8
  %this1 = load ptr, ptr %this.addr, align 8
  %call = call noundef i64 @_ZNK5folly5RangeIPKcE4sizeEv(ptr noundef nonnull align 8 dereferenceable(16) %this1)
  %0 = load ptr, ptr %other.addr, align 8
  %call2 = call noundef i64 @_ZNK5folly5RangeIPKcE4sizeEv(ptr noundef nonnull align 8 dereferenceable(16) %0)
  %cmp = icmp uge i64 %call, %call2
  br i1 %cmp, label %land.rhs, label %land.end

land.rhs:                                         ; preds = %entry
  %call4 = call { ptr, ptr } @_ZNK5folly5RangeIPKcE11castToConstEv(ptr noundef nonnull align 8 dereferenceable(16) %this1)
  %1 = getelementptr inbounds { ptr, ptr }, ptr %ref.tmp3, i32 0, i32 0
  %2 = extractvalue { ptr, ptr } %call4, 0
  store ptr %2, ptr %1, align 8
  %3 = getelementptr inbounds { ptr, ptr }, ptr %ref.tmp3, i32 0, i32 1
  %4 = extractvalue { ptr, ptr } %call4, 1
  store ptr %4, ptr %3, align 8
  %5 = load ptr, ptr %other.addr, align 8
  %call5 = call noundef i64 @_ZNK5folly5RangeIPKcE4sizeEv(ptr noundef nonnull align 8 dereferenceable(16) %5)
  %call6 = call { ptr, ptr } @_ZNK5folly5RangeIPKcE8subpieceEmm(ptr noundef nonnull align 8 dereferenceable(16) %ref.tmp3, i64 noundef 0, i64 noundef %call5)
  %6 = getelementptr inbounds { ptr, ptr }, ptr %ref.tmp, i32 0, i32 0
  %7 = extractvalue { ptr, ptr } %call6, 0
  store ptr %7, ptr %6, align 8
  %8 = getelementptr inbounds { ptr, ptr }, ptr %ref.tmp, i32 0, i32 1
  %9 = extractvalue { ptr, ptr } %call6, 1
  store ptr %9, ptr %8, align 8
  %10 = load ptr, ptr %other.addr, align 8
  %call7 = call noundef zeroext i1 @_ZN5follyeqIPKcEEbRKNS_5RangeIT_EES7_(ptr noundef nonnull align 8 dereferenceable(16) %ref.tmp, ptr noundef nonnull align 8 dereferenceable(16) %10)
  br label %land.end

land.end:                                         ; preds = %land.rhs, %entry
  %11 = phi i1 [ false, %entry ], [ %call7, %land.rhs ]
  ret i1 %11
}

; Function Attrs: mustprogress nounwind uwtable
define linkonce_odr void @_ZN5folly5RangeIPKcEC2ISaIcES2_TnNS_6detail13IsCharPointerIT0_E10const_typeELi0EEERKNSt7__cxx1112basic_stringIcSt11char_traitsIcET_EE(ptr noundef nonnull align 8 dereferenceable(16) %this, ptr noundef nonnull align 8 dereferenceable(32) %str) unnamed_addr #2 comdat align 2 {
entry:
  %this.addr = alloca ptr, align 8
  %str.addr = alloca ptr, align 8
  store ptr %this, ptr %this.addr, align 8
  store ptr %str, ptr %str.addr, align 8
  %this1 = load ptr, ptr %this.addr, align 8
  %b_ = getelementptr inbounds %"class.folly::Range", ptr %this1, i32 0, i32 0
  %0 = load ptr, ptr %str.addr, align 8
  %call = call noundef ptr @_ZNKSt7__cxx1112basic_stringIcSt11char_traitsIcESaIcEE4dataEv(ptr noundef nonnull align 8 dereferenceable(32) %0) #3
  store ptr %call, ptr %b_, align 8
  %e_ = getelementptr inbounds %"class.folly::Range", ptr %this1, i32 0, i32 1
  %b_2 = getelementptr inbounds %"class.folly::Range", ptr %this1, i32 0, i32 0
  %1 = load ptr, ptr %b_2, align 8
  %2 = load ptr, ptr %str.addr, align 8
  %call3 = call noundef i64 @_ZNKSt7__cxx1112basic_stringIcSt11char_traitsIcESaIcEE4sizeEv(ptr noundef nonnull align 8 dereferenceable(32) %2) #3
  %add.ptr = getelementptr inbounds i8, ptr %1, i64 %call3
  store ptr %add.ptr, ptr %e_, align 8
  ret void
}

; Function Attrs: mustprogress uwtable
define noundef zeroext i8 @_ZN8proxygen23StructuredHeadersBuffer12removeSymbolERKNSt7__cxx1112basic_stringIcSt11char_traitsIcESaIcEEEb(ptr noundef nonnull align 8 dereferenceable(32) %this, ptr noundef nonnull align 8 dereferenceable(32) %symbol, i1 noundef zeroext %strict) #1 align 2 {
entry:
  %retval = alloca i8, align 1
  %this.addr = alloca ptr, align 8
  %symbol.addr = alloca ptr, align 8
  %strict.addr = alloca i8, align 1
  %ref.tmp = alloca %"class.folly::Range", align 8
  %ref.tmp5 = alloca i8, align 1
  store ptr %this, ptr %this.addr, align 8
  store ptr %symbol, ptr %symbol.addr, align 8
  %frombool = zext i1 %strict to i8
  store i8 %frombool, ptr %strict.addr, align 1
  %this1 = load ptr, ptr %this.addr, align 8
  %content_ = getelementptr inbounds %"class.proxygen::StructuredHeadersBuffer", ptr %this1, i32 0, i32 0
  %0 = load ptr, ptr %symbol.addr, align 8
  call void @_ZN5folly5RangeIPKcEC2ISaIcES2_TnNS_6detail13IsCharPointerIT0_E10const_typeELi0EEERKNSt7__cxx1112basic_stringIcSt11char_traitsIcET_EE(ptr noundef nonnull align 8 dereferenceable(16) %ref.tmp, ptr noundef nonnull align 8 dereferenceable(32) %0)
  %call = call noundef zeroext i1 @_ZNK5folly5RangeIPKcE10startsWithERKS3_(ptr noundef nonnull align 8 dereferenceable(16) %content_, ptr noundef nonnull align 8 dereferenceable(16) %ref.tmp)
  br i1 %call, label %if.then, label %if.else

if.then:                                          ; preds = %entry
  %content_2 = getelementptr inbounds %"class.proxygen::StructuredHeadersBuffer", ptr %this1, i32 0, i32 0
  %1 = load ptr, ptr %symbol.addr, align 8
  %call3 = call noundef i64 @_ZNKSt7__cxx1112basic_stringIcSt11char_traitsIcESaIcEE6lengthEv(ptr noundef nonnull align 8 dereferenceable(32) %1) #3
  call void @_ZN5folly5RangeIPKcE7advanceEm(ptr noundef nonnull align 8 dereferenceable(16) %content_2, i64 noundef %call3)
  store i8 0, ptr %retval, align 1
  br label %return

if.else:                                          ; preds = %entry
  %2 = load i8, ptr %strict.addr, align 1
  %tobool = trunc i8 %2 to i1
  br i1 %tobool, label %if.then4, label %if.end

if.then4:                                         ; preds = %if.else
  store i8 2, ptr %ref.tmp5, align 1
  %call6 = call noundef zeroext i8 @_ZN8proxygen23StructuredHeadersBuffer17handleDecodeErrorERKNS_17StructuredHeaders11DecodeErrorE(ptr noundef nonnull align 8 dereferenceable(32) %this1, ptr noundef nonnull align 1 dereferenceable(1) %ref.tmp5)
  store i8 %call6, ptr %retval, align 1
  br label %return

if.end:                                           ; preds = %if.else
  store i8 2, ptr %retval, align 1
  br label %return

return:                                           ; preds = %if.end, %if.then4, %if.then
  %3 = load i8, ptr %retval, align 1
  ret i8 %3
}