; Function Attrs: mustprogress uwtable
define noundef zeroext i8 @_ZN8proxygen23StructuredHeadersBuffer12removeSymbolERKNSt7__cxx1112basic_stringIcSt11char_traitsIcESaIcEEEb(ptr nocapture noundef nonnull align 8 dereferenceable(32) %this, ptr noundef nonnull align 8 dereferenceable(32) %symbol, i1 noundef zeroext %strict) local_unnamed_addr #0 align 2 {
entry:
  %ref.tmp5 = alloca i8, align 1
  %call.i = tail call noundef ptr @_ZNKSt7__cxx1112basic_stringIcSt11char_traitsIcESaIcEE4dataEv(ptr noundef nonnull align 8 dereferenceable(32) %symbol) #27
  %call3.i = tail call noundef i64 @_ZNKSt7__cxx1112basic_stringIcSt11char_traitsIcESaIcEE4sizeEv(ptr noundef nonnull align 8 dereferenceable(32) %symbol) #27
  %e_.i.i = getelementptr inbounds i8, ptr %this, i64 8
  %0 = load ptr, ptr %e_.i.i, align 8
  %1 = load ptr, ptr %this, align 8
  %sub.ptr.lhs.cast.i.i = ptrtoint ptr %0 to i64
  %sub.ptr.rhs.cast.i.i = ptrtoint ptr %1 to i64
  %sub.ptr.sub.i.i = sub i64 %sub.ptr.lhs.cast.i.i, %sub.ptr.rhs.cast.i.i
  %cmp.not.i = icmp ult i64 %sub.ptr.sub.i.i, %call3.i
  br i1 %cmp.not.i, label %if.else, label %land.rhs.i.i

land.rhs.i.i:                                     ; preds = %entry
  %cmp.i8.i.i.i = icmp eq i64 %call3.i, 0
  br i1 %cmp.i8.i.i.i, label %if.then, label %_ZNSt11char_traitsIcE7compareEPKcS2_m.exit.i.i.i

_ZNSt11char_traitsIcE7compareEPKcS2_m.exit.i.i.i: ; preds = %land.rhs.i.i
  %bcmp.i.i = tail call i32 @bcmp(ptr %1, ptr %call.i, i64 %call3.i)
  %cmp.i.i.i = icmp eq i32 %bcmp.i.i, 0
  br i1 %cmp.i.i.i, label %if.then, label %if.else

if.then:                                          ; preds = %_ZNSt11char_traitsIcE7compareEPKcS2_m.exit.i.i.i, %land.rhs.i.i
  %call3 = tail call noundef i64 @_ZNKSt7__cxx1112basic_stringIcSt11char_traitsIcESaIcEE6lengthEv(ptr noundef nonnull align 8 dereferenceable(32) %symbol) #27
  %2 = load ptr, ptr %e_.i.i, align 8
  %3 = load ptr, ptr %this, align 8
  %sub.ptr.lhs.cast.i.i3 = ptrtoint ptr %2 to i64
  %sub.ptr.rhs.cast.i.i4 = ptrtoint ptr %3 to i64
  %sub.ptr.sub.i.i5 = sub i64 %sub.ptr.lhs.cast.i.i3, %sub.ptr.rhs.cast.i.i4
  %cmp.i = icmp ult i64 %sub.ptr.sub.i.i5, %call3
  br i1 %cmp.i, label %if.then.i, label %_ZN5folly5RangeIPKcE7advanceEm.exit

if.then.i:                                        ; preds = %if.then
  tail call void @_ZN5folly6detail16throw_exception_ISt12out_of_rangeJPKcEEEvDpT0_(ptr noundef nonnull @.str.28) #31
  unreachable

_ZN5folly5RangeIPKcE7advanceEm.exit:              ; preds = %if.then
  %add.ptr.i6 = getelementptr inbounds i8, ptr %3, i64 %call3
  store ptr %add.ptr.i6, ptr %this, align 8
  br label %return

if.else:                                          ; preds = %entry, %_ZNSt11char_traitsIcE7compareEPKcS2_m.exit.i.i.i
  br i1 %strict, label %if.then4, label %return

if.then4:                                         ; preds = %if.else
  store i8 2, ptr %ref.tmp5, align 1
  %call6 = call noundef zeroext i8 @_ZN8proxygen23StructuredHeadersBuffer17handleDecodeErrorERKNS_17StructuredHeaders11DecodeErrorE(ptr noundef nonnull align 8 dereferenceable(32) %this, ptr noundef nonnull align 1 dereferenceable(1) %ref.tmp5)
  br label %return

return:                                           ; preds = %if.else, %if.then4, %_ZN5folly5RangeIPKcE7advanceEm.exit
  %retval.0 = phi i8 [ 0, %_ZN5folly5RangeIPKcE7advanceEm.exit ], [ %call6, %if.then4 ], [ 2, %if.else ]
  ret i8 %retval.0
}